target datalayout = "e-m:e-p270:32:32-p271:32:32-p272:64:64-i64:64-i128:128-f80:128-n8:16:32:64-S128"
target triple = "x86_64-pc-linux-gnu"

%struct.expert_field = type { i32, i32 }

@hf_olsr_htime = internal global i32 0, align 4
@hf_olsr_willingness = internal global i32 0, align 4
@hf_olsr_link_type = internal global i32 0, align 4
@hf_olsr_link_message_size = internal global i32 0, align 4
@ett_olsr_message_linktype = internal global i32 0, align 4
@ei_olsr_not_enough_bytes = internal global %struct.expert_field zeroinitializer, align 4
@.str.124 = private unnamed_addr constant [18 x i8] c"%.3f (in seconds)\00", align 1
@.str.130 = private unnamed_addr constant [27 x i8] c"Not enough bytes for Hello\00", align 1
@.str.131 = private unnamed_addr constant [38 x i8] c"Not enough bytes for last Hello entry\00", align 1
@.str.132 = private unnamed_addr constant [26 x i8] c"(too short, must be >= 4)\00", align 1

; Function Attrs: nounwind null_pointer_is_valid sspstrong uwtable
define internal double @getOlsrTime(i8 noundef zeroext %0) #6 {
  %2 = alloca i8, align 1
  %3 = alloca i32, align 4
  %4 = alloca i32, align 4
  store i8 %0, ptr %2, align 1
  call void @llvm.lifetime.start.p0(i64 4, ptr %3) #7
  call void @llvm.lifetime.start.p0(i64 4, ptr %4) #7
  %5 = load i8, ptr %2, align 1
  %6 = zext i8 %5 to i32
  %7 = and i32 %6, 240
  %8 = ashr i32 %7, 4
  store i32 %8, ptr %3, align 4
  %9 = load i8, ptr %2, align 1
  %10 = zext i8 %9 to i32
  %11 = and i32 %10, 15
  store i32 %11, ptr %4, align 4
  %12 = load i32, ptr %4, align 4
  %13 = zext i32 %12 to i64
  %14 = shl i64 1, %13
  %15 = uitofp i64 %14 to double
  %16 = fdiv double %15, 1.600000e+01
  %17 = load i32, ptr %3, align 4
  %18 = sitofp i32 %17 to double
  %19 = fdiv double %18, 1.600000e+01
  %20 = fadd double 1.000000e+00, %19
  %21 = fmul double %16, %20
  call void @llvm.lifetime.end.p0(i64 4, ptr %4) #7
  call void @llvm.lifetime.end.p0(i64 4, ptr %3) #7
  ret double %21
}

; Function Attrs: null_pointer_is_valid sspstrong uwtable
define internal i32 @dissect_olsr_hello(ptr noundef %0, ptr noundef %1, ptr noundef %2, i32 noundef %3, i32 noundef %4, ptr noundef %5) #0 {
  %7 = alloca i32, align 4
  %8 = alloca ptr, align 8
  %9 = alloca ptr, align 8
  %10 = alloca ptr, align 8
  %11 = alloca i32, align 4
  %12 = alloca i32, align 4
  %13 = alloca ptr, align 8
  %14 = alloca double, align 8
  %15 = alloca ptr, align 8
  %16 = alloca ptr, align 8
  %17 = alloca i16, align 2
  %18 = alloca i32, align 4
  store ptr %0, ptr %8, align 8
  store ptr %1, ptr %9, align 8
  store ptr %2, ptr %10, align 8
  store i32 %3, ptr %11, align 4
  store i32 %4, ptr %12, align 4
  store ptr %5, ptr %13, align 8
  call void @llvm.lifetime.start.p0(i64 8, ptr %14) #7
  call void @llvm.lifetime.start.p0(i64 8, ptr %15) #7
  call void @llvm.lifetime.start.p0(i64 8, ptr %16) #7
  call void @llvm.lifetime.start.p0(i64 2, ptr %17) #7
  %19 = load i32, ptr %12, align 4
  %20 = load i32, ptr %11, align 4
  %21 = sub i32 %19, %20
  %22 = icmp slt i32 %21, 4
  br i1 %22, label %23, label %33

23:                                               ; preds = %6
  %24 = load ptr, ptr %10, align 8
  %25 = load ptr, ptr %9, align 8
  %26 = load ptr, ptr %8, align 8
  %27 = load i32, ptr %11, align 4
  %28 = load i32, ptr %12, align 4
  %29 = load i32, ptr %11, align 4
  %30 = sub i32 %28, %29
  %31 = call ptr (ptr, ptr, ptr, ptr, i32, i32, ptr, ...) @proto_tree_add_expert_format(ptr noundef %24, ptr noundef %25, ptr noundef @ei_olsr_not_enough_bytes, ptr noundef %26, i32 noundef %27, i32 noundef %30, ptr noundef @.str.130)
  %32 = load i32, ptr %12, align 4
  store i32 %32, ptr %7, align 4
  store i32 1, ptr %18, align 4
  br label %118

33:                                               ; preds = %6
  %34 = load i32, ptr %11, align 4
  %35 = add i32 %34, 2
  store i32 %35, ptr %11, align 4
  %36 = load ptr, ptr %8, align 8
  %37 = load i32, ptr %11, align 4
  %38 = call zeroext i8 @tvb_get_uint8(ptr noundef %36, i32 noundef %37)
  %39 = call double @getOlsrTime(i8 noundef zeroext %38)
  store double %39, ptr %14, align 8
  %40 = load ptr, ptr %10, align 8
  %41 = load i32, ptr @hf_olsr_htime, align 4
  %42 = load ptr, ptr %8, align 8
  %43 = load i32, ptr %11, align 4
  %44 = load double, ptr %14, align 8
  %45 = load double, ptr %14, align 8
  %46 = call ptr (ptr, i32, ptr, i32, i32, double, ptr, ...) @proto_tree_add_double_format_value(ptr noundef %40, i32 noundef %41, ptr noundef %42, i32 noundef %43, i32 noundef 1, double noundef %44, ptr noundef @.str.124, double noundef %45)
  %47 = load i32, ptr %11, align 4
  %48 = add i32 %47, 1
  store i32 %48, ptr %11, align 4
  %49 = load ptr, ptr %10, align 8
  %50 = load i32, ptr @hf_olsr_willingness, align 4
  %51 = load ptr, ptr %8, align 8
  %52 = load i32, ptr %11, align 4
  %53 = add i32 %52, 1
  store i32 %53, ptr %11, align 4
  %54 = call ptr @proto_tree_add_item(ptr noundef %49, i32 noundef %50, ptr noundef %51, i32 noundef %52, i32 noundef 1, i32 noundef 0)
  br label %55

55:                                               ; preds = %104, %33
  %56 = load i32, ptr %11, align 4
  %57 = load i32, ptr %12, align 4
  %58 = icmp slt i32 %56, %57
  br i1 %58, label %59, label %116

59:                                               ; preds = %55
  %60 = load i32, ptr %12, align 4
  %61 = load i32, ptr %11, align 4
  %62 = sub i32 %60, %61
  %63 = icmp slt i32 %62, 4
  br i1 %63, label %64, label %74

64:                                               ; preds = %59
  %65 = load ptr, ptr %10, align 8
  %66 = load ptr, ptr %9, align 8
  %67 = load ptr, ptr %8, align 8
  %68 = load i32, ptr %11, align 4
  %69 = load i32, ptr %12, align 4
  %70 = load i32, ptr %11, align 4
  %71 = sub i32 %69, %70
  %72 = call ptr (ptr, ptr, ptr, ptr, i32, i32, ptr, ...) @proto_tree_add_expert_format(ptr noundef %65, ptr noundef %66, ptr noundef @ei_olsr_not_enough_bytes, ptr noundef %67, i32 noundef %68, i32 noundef %71, ptr noundef @.str.131)
  %73 = load i32, ptr %12, align 4
  store i32 %73, ptr %7, align 4
  store i32 1, ptr %18, align 4
  br label %118

74:                                               ; preds = %59
  %75 = load ptr, ptr %10, align 8
  %76 = load i32, ptr @hf_olsr_link_type, align 4
  %77 = load ptr, ptr %8, align 8
  %78 = load i32, ptr %11, align 4
  %79 = add i32 %78, 1
  store i32 %79, ptr %11, align 4
  %80 = call ptr @proto_tree_add_item(ptr noundef %75, i32 noundef %76, ptr noundef %77, i32 noundef %78, i32 noundef 1, i32 noundef 0)
  store ptr %80, ptr %15, align 8
  %81 = load ptr, ptr %15, align 8
  %82 = load i32, ptr @ett_olsr_message_linktype, align 4
  %83 = call ptr @proto_item_add_subtree(ptr noundef %81, i32 noundef %82)
  store ptr %83, ptr %16, align 8
  %84 = load i32, ptr %11, align 4
  %85 = add i32 %84, 1
  store i32 %85, ptr %11, align 4
  %86 = load ptr, ptr %8, align 8
  %87 = load i32, ptr %11, align 4
  %88 = call zeroext i16 @tvb_get_ntohs(ptr noundef %86, i32 noundef %87)
  store i16 %88, ptr %17, align 2
  %89 = load ptr, ptr %16, align 8
  %90 = load i32, ptr @hf_olsr_link_message_size, align 4
  %91 = load ptr, ptr %8, align 8
  %92 = load i32, ptr %11, align 4
  %93 = call ptr @proto_tree_add_item(ptr noundef %89, i32 noundef %90, ptr noundef %91, i32 noundef %92, i32 noundef 2, i32 noundef 0)
  store ptr %93, ptr %15, align 8
  %94 = load i32, ptr %11, align 4
  %95 = add i32 %94, 2
  store i32 %95, ptr %11, align 4
  %96 = load i16, ptr %17, align 2
  %97 = zext i16 %96 to i32
  %98 = icmp slt i32 %97, 4
  br i1 %98, label %99, label %104

99:                                               ; preds = %74
  %100 = load ptr, ptr %9, align 8
  %101 = load ptr, ptr %15, align 8
  %102 = call ptr (ptr, ptr, ptr, ptr, ...) @expert_add_info_format(ptr noundef %100, ptr noundef %101, ptr noundef @ei_olsr_not_enough_bytes, ptr noundef @.str.132)
  %103 = load i32, ptr %12, align 4
  store i32 %103, ptr %7, align 4
  store i32 1, ptr %18, align 4
  br label %118

104:                                              ; preds = %74
  %105 = load ptr, ptr %13, align 8
  %106 = load ptr, ptr %8, align 8
  %107 = load ptr, ptr %9, align 8
  %108 = load ptr, ptr %16, align 8
  %109 = load i32, ptr %11, align 4
  %110 = load i32, ptr %11, align 4
  %111 = load i16, ptr %17, align 2
  %112 = zext i16 %111 to i32
  %113 = add i32 %110, %112
  %114 = sub i32 %113, 4
  %115 = call i32 %105(ptr noundef %106, ptr noundef %107, ptr noundef %108, i32 noundef %109, i32 noundef %114)
  store i32 %115, ptr %11, align 4
  br label %55, !llvm.loop !12

116:                                              ; preds = %55
  %117 = load i32, ptr %12, align 4
  store i32 %117, ptr %7, align 4
  store i32 1, ptr %18, align 4
  br label %118

118:                                              ; preds = %116, %99, %64, %23
  call void @llvm.lifetime.end.p0(i64 2, ptr %17) #7
  call void @llvm.lifetime.end.p0(i64 8, ptr %16) #7
  call void @llvm.lifetime.end.p0(i64 8, ptr %15) #7
  call void @llvm.lifetime.end.p0(i64 8, ptr %14) #7
  %119 = load i32, ptr %7, align 4
  ret i32 %119
}