; Function Attrs: null_pointer_is_valid sspstrong uwtable
define internal fastcc noundef range(i32 17, 65536) i32 @dissect_olsr_hello(ptr noundef %0, ptr noundef %1, ptr noundef %2, i32 noundef range(i32 16, 65535) %3, i32 noundef returned range(i32 17, 65536) %4, ptr noundef readonly captures(none) %5) unnamed_addr #0 {
  %7 = sub nsw i32 %4, %3
  %8 = icmp slt i32 %7, 4
  br i1 %8, label %9, label %11

9:                                                ; preds = %6
  %10 = tail call ptr (ptr, ptr, ptr, ptr, i32, i32, ptr, ...) @proto_tree_add_expert_format(ptr noundef %2, ptr noundef %1, ptr noundef nonnull @ei_olsr_not_enough_bytes, ptr noundef %0, i32 noundef %3, i32 noundef %7, ptr noundef nonnull @.str.130)
  br label %.loopexit

11:                                               ; preds = %6
  %12 = add nuw nsw i32 %3, 2
  %13 = tail call zeroext i8 @tvb_get_uint8(ptr noundef %0, i32 noundef %12)
  %14 = zext i8 %13 to i32
  %15 = lshr i32 %14, 4
  %16 = and i32 %14, 15
  %17 = zext nneg i32 %16 to i64
  %18 = shl nuw nsw i64 1, %17
  %19 = uitofp nneg i64 %18 to double
  %20 = fmul double %19, 6.250000e-02
  %21 = uitofp nneg i32 %15 to double
  %22 = fmul double %21, 6.250000e-02
  %23 = fadd double %22, 1.000000e+00
  %24 = fmul double %23, %20
  %25 = load i32, ptr @hf_olsr_htime, align 4
  %26 = tail call ptr (ptr, i32, ptr, i32, i32, double, ptr, ...) @proto_tree_add_double_format_value(ptr noundef %2, i32 noundef %25, ptr noundef %0, i32 noundef %12, i32 noundef 1, double noundef %24, ptr noundef nonnull @.str.124, double noundef %24)
  %27 = add nuw nsw i32 %3, 3
  %28 = load i32, ptr @hf_olsr_willingness, align 4
  %29 = add nuw nsw i32 %3, 4
  %30 = tail call ptr @proto_tree_add_item(ptr noundef %2, i32 noundef %28, ptr noundef %0, i32 noundef %27, i32 noundef 1, i32 noundef 0)
  %31 = icmp samesign ult i32 %29, %4
  br i1 %31, label %.lr.ph, label %.loopexit

.lr.ph:                                           ; preds = %11, %48
  %.05563 = phi i32 [ %52, %48 ], [ %29, %11 ]
  %32 = sub i32 %4, %.05563
  %33 = icmp slt i32 %32, 4
  br i1 %33, label %34, label %36

34:                                               ; preds = %.lr.ph
  %35 = tail call ptr (ptr, ptr, ptr, ptr, i32, i32, ptr, ...) @proto_tree_add_expert_format(ptr noundef %2, ptr noundef %1, ptr noundef nonnull @ei_olsr_not_enough_bytes, ptr noundef %0, i32 noundef %.05563, i32 noundef %32, ptr noundef nonnull @.str.131)
  br label %.loopexit

36:                                               ; preds = %.lr.ph
  %37 = load i32, ptr @hf_olsr_link_type, align 4
  %38 = tail call ptr @proto_tree_add_item(ptr noundef %2, i32 noundef %37, ptr noundef %0, i32 noundef %.05563, i32 noundef 1, i32 noundef 0)
  %39 = load i32, ptr @ett_olsr_message_linktype, align 4
  %40 = tail call ptr @proto_item_add_subtree(ptr noundef %38, i32 noundef %39)
  %41 = add nsw i32 %.05563, 2
  %42 = tail call zeroext i16 @tvb_get_ntohs(ptr noundef %0, i32 noundef %41)
  %43 = load i32, ptr @hf_olsr_link_message_size, align 4
  %44 = tail call ptr @proto_tree_add_item(ptr noundef %40, i32 noundef %43, ptr noundef %0, i32 noundef %41, i32 noundef 2, i32 noundef 0)
  %45 = icmp ult i16 %42, 4
  br i1 %45, label %46, label %48

46:                                               ; preds = %36
  %47 = tail call ptr (ptr, ptr, ptr, ptr, ...) @expert_add_info_format(ptr noundef %1, ptr noundef %44, ptr noundef nonnull @ei_olsr_not_enough_bytes, ptr noundef nonnull @.str.132)
  br label %.loopexit

48:                                               ; preds = %36
  %49 = zext i16 %42 to i32
  %50 = add nsw i32 %.05563, 4
  %51 = add i32 %.05563, %49
  %52 = tail call i32 %5(ptr noundef %0, ptr noundef %1, ptr noundef %40, i32 noundef %50, i32 noundef %51), !callees !11
  %53 = icmp slt i32 %52, %4
  br i1 %53, label %.lr.ph, label %.loopexit, !llvm.loop !12

.loopexit:                                        ; preds = %48, %11, %46, %34, %9
  ret i32 %4
}